target datalayout = "e-m:e-p270:32:32-p271:32:32-p272:64:64-i64:64-i128:128-f80:128-n8:16:32:64-S128"
target triple = "x86_64-pc-linux-gnu"

%"class.cvc5::internal::Rational" = type { %class.__gmp_expr }
%class.__gmp_expr = type { [1 x %struct.__mpq_struct] }
%struct.__mpq_struct = type { %struct.__mpz_struct, %struct.__mpz_struct }
%struct.__mpz_struct = type { i32, i32, ptr }
%"class.std::vector" = type { %"struct.std::_Vector_base" }
%"struct.std::_Vector_base" = type { %"struct.std::_Vector_base<unsigned int, std::allocator<unsigned int>>::_Vector_impl" }
%"struct.std::_Vector_base<unsigned int, std::allocator<unsigned int>>::_Vector_impl" = type { %"struct.std::_Vector_base<unsigned int, std::allocator<unsigned int>>::_Vector_impl_data" }
%"struct.std::_Vector_base<unsigned int, std::allocator<unsigned int>>::_Vector_impl_data" = type { ptr, ptr, ptr }
%"class.cvc5::internal::DenseMap.267" = type { %"class.std::vector", %"class.std::vector", %"class.std::vector.268" }
%"class.std::vector.268" = type { %"struct.std::_Vector_base.269" }
%"struct.std::_Vector_base.269" = type { %"struct.std::_Vector_base<cvc5::internal::Rational, std::allocator<cvc5::internal::Rational>>::_Vector_impl" }
%"struct.std::_Vector_base<cvc5::internal::Rational, std::allocator<cvc5::internal::Rational>>::_Vector_impl" = type { %"struct.std::_Vector_base<cvc5::internal::Rational, std::allocator<cvc5::internal::Rational>>::_Vector_impl_data" }
%"struct.std::_Vector_base<cvc5::internal::Rational, std::allocator<cvc5::internal::Rational>>::_Vector_impl_data" = type { ptr, ptr, ptr }
%"struct.std::pair.768" = type <{ ptr, i32, [4 x i8] }>
%"struct.cvc5::internal::theory::arith::linear::DenseVector" = type { %"class.cvc5::internal::DenseMap.267", %"class.cvc5::internal::Rational" }

; Function Attrs: mustprogress uwtable
define hidden { ptr, i32 } @_ZN4cvc58internal6theory5arith6linear18TheoryArithPrivate19replayGetConstraintERKNS3_7CutInfoE(ptr noundef nonnull align 8 dereferenceable(9440) %0, ptr noundef nonnull align 8 dereferenceable(88) %1) #4 align 2 {
  %3 = alloca %"struct.std::pair.768", align 8
  %4 = alloca ptr, align 8
  %5 = alloca ptr, align 8
  %6 = alloca ptr, align 8
  %7 = alloca ptr, align 8
  %8 = alloca i32, align 4
  %9 = alloca { ptr, i32 }, align 8
  store ptr %0, ptr %4, align 8, !tbaa !3
  store ptr %1, ptr %5, align 8, !tbaa !999
  %10 = load ptr, ptr %4, align 8
  call void @llvm.lifetime.start.p0(i64 8, ptr %6) #3
  %11 = load ptr, ptr %5, align 8, !tbaa !999
  %12 = call noundef nonnull align 8 dereferenceable(104) ptr @_ZNK4cvc58internal6theory5arith6linear7CutInfo17getReconstructionEv(ptr noundef nonnull align 8 dereferenceable(88) %11)
  %13 = getelementptr inbounds nuw %"struct.cvc5::internal::theory::arith::linear::DenseVector", ptr %12, i32 0, i32 0
  store ptr %13, ptr %6, align 8, !tbaa !688
  call void @llvm.lifetime.start.p0(i64 8, ptr %7) #3
  %14 = load ptr, ptr %5, align 8, !tbaa !999
  %15 = call noundef nonnull align 8 dereferenceable(104) ptr @_ZNK4cvc58internal6theory5arith6linear7CutInfo17getReconstructionEv(ptr noundef nonnull align 8 dereferenceable(88) %14)
  %16 = getelementptr inbounds nuw %"struct.cvc5::internal::theory::arith::linear::DenseVector", ptr %15, i32 0, i32 1
  store ptr %16, ptr %7, align 8, !tbaa !663
  call void @llvm.lifetime.start.p0(i64 4, ptr %8) #3
  %17 = load ptr, ptr %5, align 8, !tbaa !999
  %18 = call noundef i32 @_ZNK4cvc58internal6theory5arith6linear7CutInfo7getKindEv(ptr noundef nonnull align 8 dereferenceable(88) %17)
  store i32 %18, ptr %8, align 4, !tbaa !825
  %19 = load ptr, ptr %6, align 8, !tbaa !688
  %20 = load i32, ptr %8, align 4, !tbaa !825
  %21 = load ptr, ptr %7, align 8, !tbaa !663
  %22 = load ptr, ptr %5, align 8, !tbaa !999
  %23 = call noundef i32 @_ZNK4cvc58internal6theory5arith6linear7CutInfo8getKlassEv(ptr noundef nonnull align 8 dereferenceable(88) %22)
  %24 = icmp eq i32 %23, 2
  %25 = call { ptr, i32 } @_ZN4cvc58internal6theory5arith6linear18TheoryArithPrivate19replayGetConstraintERKNS0_8DenseMapINS0_8RationalEEENS0_4kind6Kind_tERKS6_b(ptr noundef nonnull align 8 dereferenceable(9440) %10, ptr noundef nonnull align 8 dereferenceable(72) %19, i32 noundef %20, ptr noundef nonnull align 8 dereferenceable(32) %21, i1 noundef zeroext %24)
  store { ptr, i32 } %25, ptr %9, align 8
  call void @llvm.memcpy.p0.p0.i64(ptr align 8 %3, ptr align 8 %9, i64 12, i1 false)
  call void @llvm.lifetime.end.p0(i64 4, ptr %8) #3
  call void @llvm.lifetime.end.p0(i64 8, ptr %7) #3
  call void @llvm.lifetime.end.p0(i64 8, ptr %6) #3
  %26 = load { ptr, i32 }, ptr %3, align 8
  ret { ptr, i32 } %26
}