; Function Attrs: mustprogress uwtable
define hidden { ptr, i32 } @_ZN4cvc58internal6theory5arith6linear18TheoryArithPrivate19replayGetConstraintERKNS3_7CutInfoE(ptr noundef nonnull align 8 dereferenceable(9440) %0, ptr noundef nonnull align 8 dereferenceable(88) %1) local_unnamed_addr #3 align 2 {
  %3 = tail call noundef nonnull align 8 dereferenceable(104) ptr @_ZNK4cvc58internal6theory5arith6linear7CutInfo17getReconstructionEv(ptr noundef nonnull align 8 dereferenceable(88) %1)
  %4 = tail call noundef nonnull align 8 dereferenceable(104) ptr @_ZNK4cvc58internal6theory5arith6linear7CutInfo17getReconstructionEv(ptr noundef nonnull align 8 dereferenceable(88) %1)
  %5 = getelementptr inbounds nuw i8, ptr %4, i64 72
  %6 = tail call noundef i32 @_ZNK4cvc58internal6theory5arith6linear7CutInfo7getKindEv(ptr noundef nonnull align 8 dereferenceable(88) %1)
  %7 = tail call noundef i32 @_ZNK4cvc58internal6theory5arith6linear7CutInfo8getKlassEv(ptr noundef nonnull align 8 dereferenceable(88) %1)
  %8 = tail call { ptr, i32 } @_ZN4cvc58internal6theory5arith6linear18TheoryArithPrivate19replayGetConstraintERKNS0_8DenseMapINS0_8RationalEEENS0_4kind6Kind_tERKS6_b(ptr noundef nonnull align 8 dereferenceable(9440) %0, ptr noundef nonnull align 8 dereferenceable(72) %3, i32 noundef %6, ptr noundef nonnull align 8 dereferenceable(32) %5, i1 zeroext poison)
  ret { ptr, i32 } %8
}